; Function Attrs: nounwind uwtable
define hidden void @_glfwMaximizeWindowNull(ptr noundef %0) local_unnamed_addr #0 {
  %2 = getelementptr inbounds nuw i8, ptr %0, i64 3392
  %3 = load i32, ptr %2, align 8, !tbaa !69
  %.not = icmp eq i32 %3, 0
  br i1 %.not, label %4, label %5

4:                                                ; preds = %1
  store i32 1, ptr %2, align 8, !tbaa !69
  tail call void @_glfwInputWindowMaximize(ptr noundef nonnull %0, i32 noundef 1) #11
  br label %5

5:                                                ; preds = %4, %1
  ret void
}